target datalayout = "e-m:e-p270:32:32-p271:32:32-p272:64:64-i64:64-i128:128-f80:128-n8:16:32:64-S128"
target triple = "x86_64-pc-linux-gnu"

%struct._zend_array = type { %struct._zend_refcounted_h, %union.anon.5, i32, %union.anon.7, i32, i32, i32, i32, i64, ptr }
%struct._zend_refcounted_h = type { i32, %union.anon.3 }
%union.anon.3 = type { i32 }
%union.anon.5 = type { i32 }
%union.anon.7 = type { ptr }
%struct._zend_class_entry = type { i8, ptr, %union.anon.4, i32, i32, i32, i32, ptr, ptr, ptr, %struct._zend_array, %struct._zend_array, %struct._zend_array, ptr, ptr, ptr, ptr, ptr, ptr, ptr, ptr, ptr, ptr, ptr, ptr, ptr, ptr, ptr, ptr, ptr, ptr, ptr, %union.anon.8, ptr, ptr, ptr, ptr, i32, i32, %union.anon.9, ptr, ptr, ptr, ptr, i32, ptr, ptr, %union.anon.10 }
%union.anon.4 = type { ptr }
%union.anon.8 = type { ptr }
%union.anon.9 = type { ptr }
%union.anon.10 = type { %struct.anon.11 }
%struct.anon.11 = type { ptr, i32, i32 }
%struct._zend_string = type { %struct._zend_refcounted_h, i64, i64, [1 x i8] }

@zend_ce_serializable = global ptr null, align 8
@.str.25 = private unnamed_addr constant [178 x i8] c"%s implements the Serializable interface, which is deprecated. Implement __serialize() and __unserialize() instead (or in addition, if support for old PHP versions is necessary)\00", align 1

; Function Attrs: nounwind uwtable
define internal i32 @zend_implement_serializable(ptr noundef %0, ptr noundef %1) #0 {
  %3 = alloca i32, align 4
  %4 = alloca ptr, align 8
  %5 = alloca ptr, align 8
  store ptr %0, ptr %4, align 8
  store ptr %1, ptr %5, align 8
  %6 = load ptr, ptr %5, align 8
  %7 = getelementptr inbounds %struct._zend_class_entry, ptr %6, i32 0, i32 2
  %8 = load ptr, ptr %7, align 8
  %9 = icmp ne ptr %8, null
  br i1 %9, label %10, label %31

10:                                               ; preds = %2
  %11 = load ptr, ptr %5, align 8
  %12 = getelementptr inbounds %struct._zend_class_entry, ptr %11, i32 0, i32 2
  %13 = load ptr, ptr %12, align 8
  %14 = getelementptr inbounds %struct._zend_class_entry, ptr %13, i32 0, i32 35
  %15 = load ptr, ptr %14, align 8
  %16 = icmp ne ptr %15, null
  br i1 %16, label %24, label %17

17:                                               ; preds = %10
  %18 = load ptr, ptr %5, align 8
  %19 = getelementptr inbounds %struct._zend_class_entry, ptr %18, i32 0, i32 2
  %20 = load ptr, ptr %19, align 8
  %21 = getelementptr inbounds %struct._zend_class_entry, ptr %20, i32 0, i32 36
  %22 = load ptr, ptr %21, align 8
  %23 = icmp ne ptr %22, null
  br i1 %23, label %24, label %31

24:                                               ; preds = %17, %10
  %25 = load ptr, ptr %5, align 8
  %26 = getelementptr inbounds %struct._zend_class_entry, ptr %25, i32 0, i32 2
  %27 = load ptr, ptr %26, align 8
  %28 = load ptr, ptr @zend_ce_serializable, align 8
  %29 = call zeroext i1 @zend_class_implements_interface(ptr noundef %27, ptr noundef %28)
  br i1 %29, label %31, label %30

30:                                               ; preds = %24
  store i32 -1, ptr %3, align 4
  br label %70

31:                                               ; preds = %24, %17, %2
  %32 = load ptr, ptr %5, align 8
  %33 = getelementptr inbounds %struct._zend_class_entry, ptr %32, i32 0, i32 35
  %34 = load ptr, ptr %33, align 8
  %35 = icmp ne ptr %34, null
  br i1 %35, label %39, label %36

36:                                               ; preds = %31
  %37 = load ptr, ptr %5, align 8
  %38 = getelementptr inbounds %struct._zend_class_entry, ptr %37, i32 0, i32 35
  store ptr @zend_user_serialize, ptr %38, align 8
  br label %39

39:                                               ; preds = %36, %31
  %40 = load ptr, ptr %5, align 8
  %41 = getelementptr inbounds %struct._zend_class_entry, ptr %40, i32 0, i32 36
  %42 = load ptr, ptr %41, align 8
  %43 = icmp ne ptr %42, null
  br i1 %43, label %47, label %44

44:                                               ; preds = %39
  %45 = load ptr, ptr %5, align 8
  %46 = getelementptr inbounds %struct._zend_class_entry, ptr %45, i32 0, i32 36
  store ptr @zend_user_unserialize, ptr %46, align 8
  br label %47

47:                                               ; preds = %44, %39
  %48 = load ptr, ptr %5, align 8
  %49 = getelementptr inbounds %struct._zend_class_entry, ptr %48, i32 0, i32 4
  %50 = load i32, ptr %49, align 4
  %51 = and i32 %50, 64
  %52 = icmp ne i32 %51, 0
  br i1 %52, label %69, label %53

53:                                               ; preds = %47
  %54 = load ptr, ptr %5, align 8
  %55 = getelementptr inbounds %struct._zend_class_entry, ptr %54, i32 0, i32 27
  %56 = load ptr, ptr %55, align 8
  %57 = icmp ne ptr %56, null
  br i1 %57, label %58, label %63

58:                                               ; preds = %53
  %59 = load ptr, ptr %5, align 8
  %60 = getelementptr inbounds %struct._zend_class_entry, ptr %59, i32 0, i32 28
  %61 = load ptr, ptr %60, align 8
  %62 = icmp ne ptr %61, null
  br i1 %62, label %69, label %63

63:                                               ; preds = %58, %53
  %64 = load ptr, ptr %5, align 8
  %65 = getelementptr inbounds %struct._zend_class_entry, ptr %64, i32 0, i32 1
  %66 = load ptr, ptr %65, align 8
  %67 = getelementptr inbounds %struct._zend_string, ptr %66, i32 0, i32 3
  %68 = getelementptr inbounds [1 x i8], ptr %67, i64 0, i64 0
  call void (i32, ptr, ...) @zend_error(i32 noundef 8192, ptr noundef @.str.25, ptr noundef %68)
  br label %69

69:                                               ; preds = %63, %58, %47
  store i32 0, ptr %3, align 4
  br label %70

70:                                               ; preds = %69, %30
  %71 = load i32, ptr %3, align 4
  ret i32 %71
}