; Function Attrs: nounwind uwtable
define internal noundef i32 @zend_implement_serializable(ptr nocapture readnone %0, ptr nocapture noundef %1) #0 {
  %3 = getelementptr inbounds i8, ptr %1, i64 16
  %4 = load ptr, ptr %3, align 8
  %.not = icmp eq ptr %4, null
  br i1 %.not, label %14, label %5

5:                                                ; preds = %2
  %6 = getelementptr inbounds i8, ptr %4, i64 408
  %7 = load ptr, ptr %6, align 8
  %.not13 = icmp eq ptr %7, null
  br i1 %.not13, label %8, label %11

8:                                                ; preds = %5
  %9 = getelementptr inbounds i8, ptr %4, i64 416
  %10 = load ptr, ptr %9, align 8
  %.not14 = icmp eq ptr %10, null
  br i1 %.not14, label %14, label %11

11:                                               ; preds = %8, %5
  %12 = load ptr, ptr @zend_ce_serializable, align 8
  %13 = tail call zeroext i1 @zend_class_implements_interface(ptr noundef nonnull %4, ptr noundef %12) #9
  br i1 %13, label %14, label %36

14:                                               ; preds = %11, %8, %2
  %15 = getelementptr inbounds i8, ptr %1, i64 408
  %16 = load ptr, ptr %15, align 8
  %.not15 = icmp eq ptr %16, null
  br i1 %.not15, label %17, label %18

17:                                               ; preds = %14
  store ptr @zend_user_serialize, ptr %15, align 8
  br label %18

18:                                               ; preds = %17, %14
  %19 = getelementptr inbounds i8, ptr %1, i64 416
  %20 = load ptr, ptr %19, align 8
  %.not16 = icmp eq ptr %20, null
  br i1 %.not16, label %21, label %22

21:                                               ; preds = %18
  store ptr @zend_user_unserialize, ptr %19, align 8
  br label %22

22:                                               ; preds = %21, %18
  %23 = getelementptr inbounds i8, ptr %1, i64 28
  %24 = load i32, ptr %23, align 4
  %25 = and i32 %24, 64
  %.not17 = icmp eq i32 %25, 0
  br i1 %.not17, label %26, label %36

26:                                               ; preds = %22
  %27 = getelementptr inbounds i8, ptr %1, i64 344
  %28 = load ptr, ptr %27, align 8
  %.not18 = icmp eq ptr %28, null
  br i1 %.not18, label %32, label %29

29:                                               ; preds = %26
  %30 = getelementptr inbounds i8, ptr %1, i64 352
  %31 = load ptr, ptr %30, align 8
  %.not19 = icmp eq ptr %31, null
  br i1 %.not19, label %32, label %36

32:                                               ; preds = %29, %26
  %33 = getelementptr inbounds i8, ptr %1, i64 8
  %34 = load ptr, ptr %33, align 8
  %35 = getelementptr inbounds i8, ptr %34, i64 24
  tail call void (i32, ptr, ...) @zend_error(i32 noundef 8192, ptr noundef nonnull @.str.25, ptr noundef nonnull %35) #9
  br label %36

36:                                               ; preds = %22, %29, %32, %11
  %.0 = phi i32 [ -1, %11 ], [ 0, %32 ], [ 0, %29 ], [ 0, %22 ]
  ret i32 %.0
}